; ModuleID = '3/3209.c'
source_filename = "3/3209.c"
target datalayout = "e-m:e-p270:32:32-p271:32:32-p272:64:64-i64:64-f80:128-n8:16:32:64-S128"
target triple = "x86_64-pc-linux-gnu"

@.str = private unnamed_addr constant [5 x i8] c"%d%d\00", align 1
@.str.1 = private unnamed_addr constant [3 x i8] c"%d\00", align 1
@.str.2 = private unnamed_addr constant [4 x i8] c"yes\00", align 1
@.str.3 = private unnamed_addr constant [3 x i8] c"no\00", align 1

; Function Attrs: noinline nounwind uwtable
define dso_local i32 @main() #0 {
  %1 = alloca i32, align 4
  %2 = alloca [1000 x i32], align 16
  %3 = alloca i32, align 4
  %4 = alloca i32, align 4
  %5 = alloca i32, align 4
  %6 = alloca i32, align 4
  %7 = alloca i32, align 4
  %8 = alloca i32, align 4
  %9 = alloca i32, align 4
  %10 = alloca i32, align 4
  %11 = alloca i32, align 4
  %12 = alloca i32, align 4
  store i32 0, i32* %1, align 4
  %13 = call i32 (i8*, ...) @__isoc99_scanf(i8* getelementptr inbounds ([5 x i8], [5 x i8]* @.str, i64 0, i64 0), i32* %4, i32* %5)
  store i32 0, i32* %3, align 4
  br label %14

14:                                               ; preds = %23, %0
  %15 = load i32, i32* %3, align 4
  %16 = load i32, i32* %4, align 4
  %17 = icmp slt i32 %15, %16
  br i1 %17, label %18, label %26

18:                                               ; preds = %14
  %19 = load i32, i32* %3, align 4
  %20 = sext i32 %19 to i64
  %21 = getelementptr inbounds [1000 x i32], [1000 x i32]* %2, i64 0, i64 %20
  %22 = call i32 (i8*, ...) @__isoc99_scanf(i8* getelementptr inbounds ([3 x i8], [3 x i8]* @.str.1, i64 0, i64 0), i32* %21)
  br label %23

23:                                               ; preds = %18
  %24 = load i32, i32* %3, align 4
  %25 = add nsw i32 %24, 1
  store i32 %25, i32* %3, align 4
  br label %14

26:                                               ; preds = %14
  store i32 0, i32* %8, align 4
  store i32 0, i32* %3, align 4
  br label %27

27:                                               ; preds = %57, %26
  %28 = load i32, i32* %3, align 4
  %29 = load i32, i32* %4, align 4
  %30 = icmp slt i32 %28, %29
  br i1 %30, label %31, label %60

31:                                               ; preds = %27
  store i32 0, i32* %12, align 4
  br label %32

32:                                               ; preds = %53, %31
  %33 = load i32, i32* %12, align 4
  %34 = load i32, i32* %4, align 4
  %35 = icmp slt i32 %33, %34
  br i1 %35, label %36, label %56

36:                                               ; preds = %32
  %37 = load i32, i32* %12, align 4
  %38 = sext i32 %37 to i64
  %39 = getelementptr inbounds [1000 x i32], [1000 x i32]* %2, i64 0, i64 %38
  %40 = load i32, i32* %39, align 4
  %41 = load i32, i32* %3, align 4
  %42 = sext i32 %41 to i64
  %43 = getelementptr inbounds [1000 x i32], [1000 x i32]* %2, i64 0, i64 %42
  %44 = load i32, i32* %43, align 4
  %45 = add nsw i32 %40, %44
  store i32 %45, i32* %6, align 4
  %46 = load i32, i32* %6, align 4
  %47 = load i32, i32* %5, align 4
  %48 = icmp eq i32 %46, %47
  br i1 %48, label %49, label %52

49:                                               ; preds = %36
  %50 = load i32, i32* %8, align 4
  %51 = add nsw i32 %50, 1
  store i32 %51, i32* %8, align 4
  br label %52

52:                                               ; preds = %49, %36
  br label %53

53:                                               ; preds = %52
  %54 = load i32, i32* %12, align 4
  %55 = add nsw i32 %54, 1
  store i32 %55, i32* %12, align 4
  br label %32

56:                                               ; preds = %32
  br label %57

57:                                               ; preds = %56
  %58 = load i32, i32* %3, align 4
  %59 = add nsw i32 %58, 1
  store i32 %59, i32* %3, align 4
  br label %27

60:                                               ; preds = %27
  %61 = load i32, i32* %8, align 4
  %62 = icmp sgt i32 %61, 0
  br i1 %62, label %63, label %65

63:                                               ; preds = %60
  %64 = call i32 (i8*, ...) @printf(i8* getelementptr inbounds ([4 x i8], [4 x i8]* @.str.2, i64 0, i64 0))
  br label %71

65:                                               ; preds = %60
  %66 = load i32, i32* %8, align 4
  %67 = icmp eq i32 %66, 0
  br i1 %67, label %68, label %70

68:                                               ; preds = %65
  %69 = call i32 (i8*, ...) @printf(i8* getelementptr inbounds ([3 x i8], [3 x i8]* @.str.3, i64 0, i64 0))
  br label %70

70:                                               ; preds = %68, %65
  br label %71

71:                                               ; preds = %70, %63
  ret i32 0
}

declare dso_local i32 @__isoc99_scanf(i8*, ...) #1

declare dso_local i32 @printf(i8*, ...) #1


!llvm.module.flags = !{!0}
!llvm.ident = !{!1}

!0 = !{i32 1, !"wchar_size", i32 4}
!1 = !{!"clang version 10.0.0-4ubuntu1 "}
